target datalayout = "e-m:e-p270:32:32-p271:32:32-p272:64:64-i64:64-i128:128-f80:128-n8:16:32:64-S128"
target triple = "x86_64-pc-linux-gnu"

%"class.std::__cxx11::basic_string" = type { %"struct.std::__cxx11::basic_string<char>::_Alloc_hider", i64, %union.anon }
%"struct.std::__cxx11::basic_string<char>::_Alloc_hider" = type { ptr }
%union.anon = type { i64, [8 x i8] }

@.str.16 = private unnamed_addr constant [7 x i8] c" \0A\09\0D\0C\0B\00", align 1

; Function Attrs: mustprogress uwtable
define dso_local void @_ZN7cmCTest11CleanStringERKNSt7__cxx1112basic_stringIcSt11char_traitsIcESaIcEEEm(ptr dead_on_unwind noalias writable sret(%"class.std::__cxx11::basic_string") align 8 %0, ptr noundef nonnull align 8 dereferenceable(32) %1, i64 noundef %2) #4 align 2 {
  %4 = alloca ptr, align 8
  %5 = alloca ptr, align 8
  %6 = alloca i64, align 8
  %7 = alloca i64, align 8
  store ptr %0, ptr %4, align 8
  store ptr %1, ptr %5, align 8
  store i64 %2, ptr %6, align 8
  %8 = load ptr, ptr %5, align 8
  %9 = load i64, ptr %6, align 8
  %10 = call noundef i64 @_ZNKSt7__cxx1112basic_stringIcSt11char_traitsIcESaIcEE17find_first_not_ofEPKcm(ptr noundef nonnull align 8 dereferenceable(32) %8, ptr noundef @.str.16, i64 noundef %9) #3
  store i64 %10, ptr %6, align 8
  %11 = load ptr, ptr %5, align 8
  %12 = call noundef i64 @_ZNKSt7__cxx1112basic_stringIcSt11char_traitsIcESaIcEE16find_last_not_ofEPKcm(ptr noundef nonnull align 8 dereferenceable(32) %11, ptr noundef @.str.16, i64 noundef -1) #3
  store i64 %12, ptr %7, align 8
  %13 = load i64, ptr %6, align 8
  %14 = icmp eq i64 %13, -1
  br i1 %14, label %15, label %16

15:                                               ; preds = %3
  call void @_ZNSt7__cxx1112basic_stringIcSt11char_traitsIcESaIcEEC1Ev(ptr noundef nonnull align 8 dereferenceable(32) %0) #3
  br label %28

16:                                               ; preds = %3
  %17 = load i64, ptr %7, align 8
  %18 = icmp ne i64 %17, -1
  br i1 %18, label %19, label %24

19:                                               ; preds = %16
  %20 = load i64, ptr %7, align 8
  %21 = load i64, ptr %6, align 8
  %22 = sub i64 %20, %21
  %23 = add i64 %22, 1
  store i64 %23, ptr %7, align 8
  br label %24

24:                                               ; preds = %19, %16
  %25 = load ptr, ptr %5, align 8
  %26 = load i64, ptr %6, align 8
  %27 = load i64, ptr %7, align 8
  call void @_ZNKSt7__cxx1112basic_stringIcSt11char_traitsIcESaIcEE6substrEmm(ptr dead_on_unwind writable sret(%"class.std::__cxx11::basic_string") align 8 %0, ptr noundef nonnull align 8 dereferenceable(32) %25, i64 noundef %26, i64 noundef %27)
  br label %28

28:                                               ; preds = %24, %15
  ret void
}