; Function Attrs: mustprogress uwtable
define dso_local void @_ZN7cmCTest11CleanStringERKNSt7__cxx1112basic_stringIcSt11char_traitsIcESaIcEEEm(ptr dead_on_unwind noalias writable sret(%"class.std::__cxx11::basic_string") align 8 %0, ptr noundef nonnull align 8 dereferenceable(32) %1, i64 noundef %2) local_unnamed_addr #3 align 2 {
  %4 = tail call noundef i64 @_ZNKSt7__cxx1112basic_stringIcSt11char_traitsIcESaIcEE17find_first_not_ofEPKcm(ptr noundef nonnull align 8 dereferenceable(32) %1, ptr noundef nonnull @.str.16, i64 noundef %2) #28
  %5 = tail call noundef i64 @_ZNKSt7__cxx1112basic_stringIcSt11char_traitsIcESaIcEE16find_last_not_ofEPKcm(ptr noundef nonnull align 8 dereferenceable(32) %1, ptr noundef nonnull @.str.16, i64 noundef -1) #28
  %6 = icmp eq i64 %4, -1
  br i1 %6, label %7, label %8

7:                                                ; preds = %3
  tail call void @_ZNSt7__cxx1112basic_stringIcSt11char_traitsIcESaIcEEC1Ev(ptr noundef nonnull align 8 dereferenceable(32) %0) #28
  br label %10

8:                                                ; preds = %3
  %.not = icmp eq i64 %5, -1
  %reass.sub = sub i64 %5, %4
  %9 = add i64 %reass.sub, 1
  %.0 = select i1 %.not, i64 -1, i64 %9
  tail call void @_ZNKSt7__cxx1112basic_stringIcSt11char_traitsIcESaIcEE6substrEmm(ptr dead_on_unwind writable sret(%"class.std::__cxx11::basic_string") align 8 %0, ptr noundef nonnull align 8 dereferenceable(32) %1, i64 noundef %4, i64 noundef %.0)
  br label %10

10:                                               ; preds = %8, %7
  ret void
}